; Function Attrs: nounwind uwtable
define range(i32 0, 2) i32 @dt_export_gimp_file(i32 noundef %0) local_unnamed_addr #0 {
  %2 = load ptr, ptr getelementptr inbounds nuw (i8, ptr @darktable, i64 3424), align 8, !tbaa !6
  %.not.i = icmp eq ptr %2, null
  br i1 %.not.i, label %dt_check_gimpmode.exit, label %3

3:                                                ; preds = %1
  %4 = tail call i32 @strcmp(ptr noundef nonnull dereferenceable(1) %2, ptr noundef nonnull dereferenceable(6) @.str) #7
  %5 = icmp eq i32 %4, 0
  %6 = zext i1 %5 to i32
  br label %dt_check_gimpmode.exit

dt_check_gimpmode.exit:                           ; preds = %1, %3
  %7 = phi i32 [ %6, %3 ], [ 0, %1 ]
  %8 = tail call ptr @g_dir_make_tmp(ptr noundef nonnull @.str.1, ptr noundef null) #8
  %.not = icmp eq i32 %7, 0
  %9 = select i1 %.not, ptr @.str.2, ptr @.str
  %10 = tail call noalias ptr (ptr, ...) @g_build_filename(ptr noundef %8, ptr noundef nonnull %9, ptr noundef null) #8
  tail call void @g_free(ptr noundef %8) #8
  %11 = tail call ptr @dt_imageio_get_storage_by_name(ptr noundef nonnull @.str.3) #8
  %12 = icmp eq ptr %11, null
  br i1 %12, label %52, label %13

13:                                               ; preds = %dt_check_gimpmode.exit
  %14 = getelementptr inbounds nuw i8, ptr %11, i64 160
  %15 = load ptr, ptr %14, align 8, !tbaa !48
  %16 = tail call ptr %15(ptr noundef nonnull %11) #8
  %17 = icmp eq ptr %16, null
  br i1 %17, label %52, label %18

18:                                               ; preds = %13
  %19 = tail call i64 @g_strlcpy(ptr noundef nonnull %16, ptr noundef %10, i64 noundef 4096) #8
  %20 = select i1 %.not, ptr @.str.5, ptr @.str.4
  %21 = tail call ptr @dt_imageio_get_format_by_name(ptr noundef nonnull %20) #8
  %22 = icmp eq ptr %21, null
  br i1 %22, label %52, label %23

23:                                               ; preds = %18
  %24 = getelementptr inbounds nuw i8, ptr %21, i64 120
  %25 = load ptr, ptr %24, align 8, !tbaa !54
  %26 = tail call ptr %25(ptr noundef nonnull %21) #8
  %27 = icmp eq ptr %26, null
  br i1 %27, label %52, label %28

28:                                               ; preds = %23
  %29 = load i32, ptr getelementptr inbounds nuw (i8, ptr @darktable, i64 3416), align 8, !tbaa !56
  %30 = tail call i32 @llvm.smax.i32(i32 %29, i32 32)
  %31 = tail call i32 @llvm.umin.i32(i32 %30, i32 1024)
  %narrow = select i1 %.not, i32 0, i32 %31
  store i32 %narrow, ptr %26, align 4, !tbaa !57
  %32 = getelementptr inbounds nuw i8, ptr %26, i64 4
  store i32 %narrow, ptr %32, align 4, !tbaa !59
  %33 = getelementptr inbounds nuw i8, ptr %26, i64 16
  store i8 0, ptr %33, align 4, !tbaa !60
  %34 = getelementptr inbounds nuw i8, ptr %26, i64 144
  store i32 0, ptr %34, align 4, !tbaa !61
  %35 = getelementptr inbounds nuw i8, ptr %11, i64 128
  %36 = load ptr, ptr %35, align 8, !tbaa !62
  %37 = xor i32 %7, 1
  %38 = select i1 %.not, i32 3, i32 1
  %39 = tail call i32 %36(ptr noundef nonnull %11, ptr noundef nonnull %16, i32 noundef %0, ptr noundef nonnull %21, ptr noundef nonnull %26, i32 noundef 1, i32 noundef 1, i32 noundef %37, i32 noundef 0, i32 noundef %37, i32 noundef %38, ptr noundef null, i32 noundef 0, ptr noundef null) #8
  %40 = select i1 %.not, ptr @.str.8, ptr @.str.7
  %41 = tail call i32 (ptr, ...) @printf(ptr noundef nonnull dereferenceable(1) @.str.6, ptr noundef %10, ptr noundef nonnull %40)
  br i1 %.not, label %51, label %42

42:                                               ; preds = %28
  %43 = load ptr, ptr getelementptr inbounds nuw (i8, ptr @darktable, i64 120), align 8, !tbaa !63
  %44 = tail call ptr @dt_image_cache_get(ptr noundef %43, i32 noundef %0, i8 noundef signext 114) #8
  %45 = getelementptr inbounds nuw i8, ptr %44, i64 1372
  %46 = load i32, ptr %45, align 4, !tbaa !64
  %47 = getelementptr inbounds nuw i8, ptr %44, i64 1376
  %48 = load i32, ptr %47, align 16, !tbaa !75
  %49 = tail call i32 (ptr, ...) @printf(ptr noundef nonnull dereferenceable(1) @.str.9, i32 noundef %46, i32 noundef %48)
  %50 = load ptr, ptr getelementptr inbounds nuw (i8, ptr @darktable, i64 120), align 8, !tbaa !63
  tail call void @dt_image_cache_read_release(ptr noundef %50, ptr noundef %44) #8
  br label %51

51:                                               ; preds = %42, %28
  %puts = tail call i32 @puts(ptr nonnull dereferenceable(1) @str)
  br label %52

52:                                               ; preds = %23, %18, %13, %dt_check_gimpmode.exit, %51
  %.0 = phi i32 [ 0, %dt_check_gimpmode.exit ], [ 0, %13 ], [ 0, %18 ], [ 0, %23 ], [ 1, %51 ]
  tail call void @g_free(ptr noundef %10) #8
  ret i32 %.0
}